target datalayout = "e-m:e-p270:32:32-p271:32:32-p272:64:64-i64:64-i128:128-f80:128-n8:16:32:64-S128"
target triple = "x86_64-pc-linux-gnu"

%class.symbol = type { ptr }
%class.cmd = type { ptr, %class.symbol, i32, i32 }

@.str = private unnamed_addr constant [4 x i8] c"del\00", align 1
@.str.5 = private unnamed_addr constant [6 x i8] c"infer\00", align 1
@.str.7 = private unnamed_addr constant [7 x i8] c"assume\00", align 1

; Function Attrs: mustprogress uwtable
define linkonce_odr hidden void @_ZN3cmdC2EPKc(ptr noundef nonnull align 8 dereferenceable(24) %0, ptr noundef %1) unnamed_addr #4 comdat align 2 {
  %3 = alloca ptr, align 8
  %4 = alloca ptr, align 8
  store ptr %0, ptr %3, align 8, !tbaa !16
  store ptr %1, ptr %4, align 8, !tbaa !18
  %5 = load ptr, ptr %3, align 8
  store ptr getelementptr inbounds inrange(-16, 224) ({ [30 x ptr] }, ptr @_ZTV3cmd, i32 0, i32 0, i32 2), ptr %5, align 8, !tbaa !10
  %6 = getelementptr inbounds nuw %class.cmd, ptr %5, i32 0, i32 1
  %7 = load ptr, ptr %4, align 8, !tbaa !18
  call void @_ZN6symbolC1EPKc(ptr noundef nonnull align 8 dereferenceable(8) %6, ptr noundef %7)
  %8 = getelementptr inbounds nuw %class.cmd, ptr %5, i32 0, i32 2
  store i32 0, ptr %8, align 8, !tbaa !20
  %9 = getelementptr inbounds nuw %class.cmd, ptr %5, i32 0, i32 3
  store i32 0, ptr %9, align 4, !tbaa !24
  ret void
}

; Function Attrs: mustprogress uwtable
define linkonce_odr hidden void @_ZN10assume_cmdC2Ev(ptr noundef nonnull align 8 dereferenceable(24) %0) unnamed_addr #4 comdat align 2 {
  %2 = alloca ptr, align 8
  store ptr %0, ptr %2, align 8, !tbaa !14
  %3 = load ptr, ptr %2, align 8
  call void @_ZN3cmdC2EPKc(ptr noundef nonnull align 8 dereferenceable(24) %3, ptr noundef @.str.7)
  store ptr getelementptr inbounds inrange(-16, 224) ({ [30 x ptr] }, ptr @_ZTV10assume_cmd, i32 0, i32 0, i32 2), ptr %3, align 8, !tbaa !10
  ret void
}

; Function Attrs: mustprogress uwtable
define linkonce_odr hidden void @_ZN9infer_cmdC2Ev(ptr noundef nonnull align 8 dereferenceable(24) %0) unnamed_addr #4 comdat align 2 {
  %2 = alloca ptr, align 8
  store ptr %0, ptr %2, align 8, !tbaa !12
  %3 = load ptr, ptr %2, align 8
  call void @_ZN3cmdC2EPKc(ptr noundef nonnull align 8 dereferenceable(24) %3, ptr noundef @.str.5)
  store ptr getelementptr inbounds inrange(-16, 224) ({ [30 x ptr] }, ptr @_ZTV9infer_cmd, i32 0, i32 0, i32 2), ptr %3, align 8, !tbaa !10
  ret void
}

; Function Attrs: mustprogress uwtable
define linkonce_odr hidden void @_ZN7del_cmdC2Ev(ptr noundef nonnull align 8 dereferenceable(24) %0) unnamed_addr #4 comdat align 2 {
  %2 = alloca ptr, align 8
  store ptr %0, ptr %2, align 8, !tbaa !8
  %3 = load ptr, ptr %2, align 8
  call void @_ZN3cmdC2EPKc(ptr noundef nonnull align 8 dereferenceable(24) %3, ptr noundef @.str)
  store ptr getelementptr inbounds inrange(-16, 224) ({ [30 x ptr] }, ptr @_ZTV7del_cmd, i32 0, i32 0, i32 2), ptr %3, align 8, !tbaa !10
  ret void
}

; Function Attrs: mustprogress uwtable
define hidden void @_Z18install_proof_cmdsR11cmd_context(ptr noundef nonnull align 8 dereferenceable(896) %0) #4 {
  %2 = alloca ptr, align 8
  store ptr %0, ptr %2, align 8, !tbaa !3
  %3 = load ptr, ptr %2, align 8, !tbaa !3
  %4 = call noalias noundef ptr @_ZN6memory8allocateEm(i64 noundef 24)
  call void @_ZN7del_cmdC2Ev(ptr noundef nonnull align 8 dereferenceable(24) %4)
  call void @_ZN11cmd_context6insertEP3cmd(ptr noundef nonnull align 8 dereferenceable(896) %3, ptr noundef %4)
  %5 = load ptr, ptr %2, align 8, !tbaa !3
  %6 = call noalias noundef ptr @_ZN6memory8allocateEm(i64 noundef 24)
  call void @_ZN9infer_cmdC2Ev(ptr noundef nonnull align 8 dereferenceable(24) %6)
  call void @_ZN11cmd_context6insertEP3cmd(ptr noundef nonnull align 8 dereferenceable(896) %5, ptr noundef %6)
  %7 = load ptr, ptr %2, align 8, !tbaa !3
  %8 = call noalias noundef ptr @_ZN6memory8allocateEm(i64 noundef 24)
  call void @_ZN10assume_cmdC2Ev(ptr noundef nonnull align 8 dereferenceable(24) %8)
  call void @_ZN11cmd_context6insertEP3cmd(ptr noundef nonnull align 8 dereferenceable(896) %7, ptr noundef %8)
  ret void
}